; Function Attrs: mustprogress nofree norecurse nosync nounwind willreturn memory(read, inaccessiblemem: none) uwtable
define dso_local zeroext i1 @php_pdo_stmt_valid_db_obj_handle(ptr noundef readonly captures(none) %0) local_unnamed_addr #3 {
  %2 = getelementptr inbounds nuw i8, ptr %0, i64 120
  %3 = load ptr, ptr %2, align 8, !tbaa !10
  %.not = icmp eq ptr %3, null
  br i1 %.not, label %17, label %4

4:                                                ; preds = %1
  %5 = load ptr, ptr getelementptr inbounds nuw (i8, ptr @executor_globals, i64 880), align 8, !tbaa !25
  %6 = getelementptr inbounds nuw i8, ptr %3, i64 8
  %7 = load i32, ptr %6, align 8, !tbaa !52
  %8 = zext i32 %7 to i64
  %9 = getelementptr inbounds nuw ptr, ptr %5, i64 %8
  %10 = load ptr, ptr %9, align 8, !tbaa !53
  %11 = ptrtoint ptr %10 to i64
  %12 = and i64 %11, 1
  %.not3 = icmp eq i64 %12, 0
  br i1 %.not3, label %13, label %17

13:                                               ; preds = %4
  %14 = getelementptr inbounds nuw i8, ptr %3, i64 4
  %15 = load i32, ptr %14, align 4, !tbaa !4
  %16 = and i32 %15, 512
  %.not4 = icmp eq i32 %16, 0
  br label %17

17:                                               ; preds = %13, %4, %1
  %18 = phi i1 [ false, %4 ], [ false, %1 ], [ %.not4, %13 ]
  ret i1 %18
}